(dp0
Vengine
p1
S'pdflatex'
p2
sVpackages
p3
c__builtin__
set
p4
((lp5
Vmulticol
p6
aVcolor
p7
aVbabel
p8
aVlistings
p9
aVqtree
p10
aVinputenc
p11
atp12
Rp13
sVfiles_with_guttermarks
p14
g4
((lp15
S'06-exceptions.tex'
p16
aV/Users/Max/Developer/Uni/Java-Kurs/java-lessons/latex/slides/./06-exceptions.tex
p17
aV/Users/Max/Developer/Uni/Java-Kurs/java-lessons/latex/slides/06-exceptions.tex
p18
atp19
Rp20
sVsynctex
p21
I01
s.