(dp0
Vengine
p1
Vlualatex
p2
sVpackages
p3
c__builtin__
set
p4
((lp5
Vcolor
p6
aVbabel
p7
aVlistings
p8
aVinputenc
p9
aVmulticol
p10
atp11
Rp12
sVfiles_with_guttermarks
p13
g4
((lp14
V/Users/Max/Developer/Uni/Java-Kurs/java-lessons/latex/slides/./08-nothing.tex
p15
aS'08-nothing.tex'
p16
aV/Users/Max/Developer/Uni/Java-Kurs/java-lessons/latex/slides/08-nothing.tex
p17
atp18
Rp19
sVsynctex
p20
I01
s.